target datalayout = "e-m:e-p270:32:32-p271:32:32-p272:64:64-i64:64-i128:128-f80:128-n8:16:32:64-S128"
target triple = "x86_64-pc-linux-gnu"

; Function Attrs: nounwind uwtable
define internal void @vertical_compose_haar_12bit(ptr noundef %0, ptr noundef %1, i32 noundef %2) #0 {
  %4 = alloca ptr, align 8
  %5 = alloca ptr, align 8
  %6 = alloca i32, align 4
  %7 = alloca i32, align 4
  %8 = alloca ptr, align 8
  %9 = alloca ptr, align 8
  store ptr %0, ptr %4, align 8, !tbaa !44
  store ptr %1, ptr %5, align 8, !tbaa !44
  store i32 %2, ptr %6, align 4, !tbaa !11
  call void @llvm.lifetime.start.p0(i64 4, ptr %7) #5
  call void @llvm.lifetime.start.p0(i64 8, ptr %8) #5
  %10 = load ptr, ptr %4, align 8, !tbaa !44
  store ptr %10, ptr %8, align 8, !tbaa !91
  call void @llvm.lifetime.start.p0(i64 8, ptr %9) #5
  %11 = load ptr, ptr %5, align 8, !tbaa !44
  store ptr %11, ptr %9, align 8, !tbaa !91
  store i32 0, ptr %7, align 4, !tbaa !11
  br label %12

12:                                               ; preds = %49, %3
  %13 = load i32, ptr %7, align 4, !tbaa !11
  %14 = load i32, ptr %6, align 4, !tbaa !11
  %15 = icmp slt i32 %13, %14
  br i1 %15, label %16, label %52

16:                                               ; preds = %12
  %17 = load ptr, ptr %8, align 8, !tbaa !91
  %18 = load i32, ptr %7, align 4, !tbaa !11
  %19 = sext i32 %18 to i64
  %20 = getelementptr inbounds i32, ptr %17, i64 %19
  %21 = load i32, ptr %20, align 4, !tbaa !11
  %22 = load ptr, ptr %9, align 8, !tbaa !91
  %23 = load i32, ptr %7, align 4, !tbaa !11
  %24 = sext i32 %23 to i64
  %25 = getelementptr inbounds i32, ptr %22, i64 %24
  %26 = load i32, ptr %25, align 4, !tbaa !11
  %27 = add i32 %26, 1
  %28 = ashr i32 %27, 1
  %29 = sub i32 %21, %28
  %30 = load ptr, ptr %8, align 8, !tbaa !91
  %31 = load i32, ptr %7, align 4, !tbaa !11
  %32 = sext i32 %31 to i64
  %33 = getelementptr inbounds i32, ptr %30, i64 %32
  store i32 %29, ptr %33, align 4, !tbaa !11
  %34 = load ptr, ptr %9, align 8, !tbaa !91
  %35 = load i32, ptr %7, align 4, !tbaa !11
  %36 = sext i32 %35 to i64
  %37 = getelementptr inbounds i32, ptr %34, i64 %36
  %38 = load i32, ptr %37, align 4, !tbaa !11
  %39 = load ptr, ptr %8, align 8, !tbaa !91
  %40 = load i32, ptr %7, align 4, !tbaa !11
  %41 = sext i32 %40 to i64
  %42 = getelementptr inbounds i32, ptr %39, i64 %41
  %43 = load i32, ptr %42, align 4, !tbaa !11
  %44 = add i32 %38, %43
  %45 = load ptr, ptr %9, align 8, !tbaa !91
  %46 = load i32, ptr %7, align 4, !tbaa !11
  %47 = sext i32 %46 to i64
  %48 = getelementptr inbounds i32, ptr %45, i64 %47
  store i32 %44, ptr %48, align 4, !tbaa !11
  br label %49

49:                                               ; preds = %16
  %50 = load i32, ptr %7, align 4, !tbaa !11
  %51 = add nsw i32 %50, 1
  store i32 %51, ptr %7, align 4, !tbaa !11
  br label %12, !llvm.loop !139

52:                                               ; preds = %12
  call void @llvm.lifetime.end.p0(i64 8, ptr %9) #5
  call void @llvm.lifetime.end.p0(i64 8, ptr %8) #5
  call void @llvm.lifetime.end.p0(i64 4, ptr %7) #5
  ret void
}